target datalayout = "e-m:e-p270:32:32-p271:32:32-p272:64:64-i64:64-i128:128-f80:128-n8:16:32:64-S128"
target triple = "x86_64-pc-linux-gnu"

%struct.buf_2d = type { ptr, ptr, i32, i32, i32 }
%struct.macroblockd_plane = type { i8, i32, i32, %struct.buf_2d, [2 x %struct.buf_2d], ptr, ptr, [8 x [2 x i16]], ptr, i8, i8, [8 x [19 x ptr]], [8 x [19 x ptr]] }

; Function Attrs: nounwind uwtable
define internal zeroext i8 @get_plane_block_size(i8 noundef zeroext %0, i32 noundef %1, i32 noundef %2) #0 {
  %4 = alloca i8, align 1
  %5 = alloca i32, align 4
  %6 = alloca i32, align 4
  store i8 %0, ptr %4, align 1
  store i32 %1, ptr %5, align 4
  store i32 %2, ptr %6, align 4
  %7 = load i8, ptr %4, align 1
  %8 = zext i8 %7 to i64
  %9 = getelementptr inbounds [22 x [2 x [2 x i8]]], ptr @ss_size_lookup, i64 0, i64 %8
  %10 = load i32, ptr %5, align 4
  %11 = sext i32 %10 to i64
  %12 = getelementptr inbounds [2 x [2 x i8]], ptr %9, i64 0, i64 %11
  %13 = load i32, ptr %6, align 4
  %14 = sext i32 %13 to i64
  %15 = getelementptr inbounds [2 x i8], ptr %12, i64 0, i64 %14
  %16 = load i8, ptr %15, align 1
  ret i8 %16
}

; Function Attrs: nounwind uwtable
define hidden i32 @av1_skip_u4x4_pred_in_obmc(i8 noundef zeroext %0, ptr noundef %1, i32 noundef %2) #0 {
  %4 = alloca i32, align 4
  %5 = alloca i8, align 1
  %6 = alloca ptr, align 8
  %7 = alloca i32, align 4
  %8 = alloca i8, align 1
  store i8 %0, ptr %5, align 1
  store ptr %1, ptr %6, align 8
  store i32 %2, ptr %7, align 4
  %9 = load i8, ptr %5, align 1
  %10 = load ptr, ptr %6, align 8
  %11 = getelementptr inbounds nuw %struct.macroblockd_plane, ptr %10, i32 0, i32 1
  %12 = load i32, ptr %11, align 4
  %13 = load ptr, ptr %6, align 8
  %14 = getelementptr inbounds nuw %struct.macroblockd_plane, ptr %13, i32 0, i32 2
  %15 = load i32, ptr %14, align 8
  %16 = call zeroext i8 @get_plane_block_size(i8 noundef zeroext %9, i32 noundef %12, i32 noundef %15)
  store i8 %16, ptr %8, align 1
  %17 = load i8, ptr %8, align 1
  %18 = zext i8 %17 to i32
  switch i32 %18, label %23 [
    i32 0, label %19
    i32 2, label %19
    i32 1, label %19
  ]

19:                                               ; preds = %3, %3, %3
  %20 = load i32, ptr %7, align 4
  %21 = icmp eq i32 %20, 0
  %22 = zext i1 %21 to i32
  store i32 %22, ptr %4, align 4
  br label %24

23:                                               ; preds = %3
  store i32 0, ptr %4, align 4
  br label %24

24:                                               ; preds = %23, %19
  %25 = load i32, ptr %4, align 4
  ret i32 %25
}