; Function Attrs: mustprogress nofree norecurse nosync nounwind willreturn memory(argmem: read) uwtable
define hidden range(i32 0, 2) i32 @av1_skip_u4x4_pred_in_obmc(i8 noundef zeroext %0, ptr nocapture noundef readonly %1, i32 noundef %2) local_unnamed_addr #12 {
  %4 = getelementptr inbounds nuw i8, ptr %1, i64 4
  %5 = load i32, ptr %4, align 4
  %6 = getelementptr inbounds nuw i8, ptr %1, i64 8
  %7 = load i32, ptr %6, align 8
  %8 = zext i8 %0 to i64
  %9 = sext i32 %5 to i64
  %10 = sext i32 %7 to i64
  %11 = getelementptr inbounds [22 x [2 x [2 x i8]]], ptr @ss_size_lookup, i64 0, i64 %8, i64 %9, i64 %10
  %12 = load i8, ptr %11, align 1
  %switch = icmp ult i8 %12, 3
  %13 = icmp eq i32 %2, 0
  %narrow = and i1 %13, %switch
  %.0 = zext i1 %narrow to i32
  ret i32 %.0
}